target datalayout = "e-m:e-p270:32:32-p271:32:32-p272:64:64-i64:64-i128:128-f80:128-n8:16:32:64-S128"
target triple = "x86_64-pc-linux-gnu"

%struct.cavs_vector = type { i16, i16, i16, i16 }
%struct.AVSContext = type { ptr, %struct.BlockDSPContext, %struct.H264ChromaContext, %struct.VideoDSPContext, %struct.CAVSDSPContext, %struct.GetBitContext, %struct.AVSFrame, [2 x %struct.AVSFrame], [2 x i32], i32, i32, i32, i32, i32, i32, i32, i32, i32, i32, i32, i32, i32, i32, i32, i32, i32, i32, i32, i32, i32, ptr, ptr, ptr, i32, ptr, [24 x %struct.cavs_vector], [2 x ptr], ptr, [9 x i32], ptr, i64, i64, [4 x i32], i32, i32, i32, i32, [64 x i8], ptr, ptr, ptr, [26 x i8], [10 x i8], [10 x i8], [26 x i8], i8, i8, i8, [8 x ptr], [7 x ptr], ptr, i32, [2 x i32], [2 x i32], ptr, i32, ptr }
%struct.BlockDSPContext = type { ptr, ptr, [2 x ptr] }
%struct.H264ChromaContext = type { [4 x ptr], [4 x ptr] }
%struct.VideoDSPContext = type { ptr, ptr }
%struct.CAVSDSPContext = type { [2 x [16 x ptr]], [2 x [16 x ptr]], ptr, ptr, ptr, ptr, ptr, i32 }
%struct.GetBitContext = type { ptr, ptr, i32, i32, i32 }
%struct.AVSFrame = type { ptr, i32 }

; Function Attrs: nounwind uwtable
define void @ff_cavs_load_intra_pred_chroma(ptr noundef %0) #0 {
  %2 = alloca ptr, align 8
  store ptr %0, ptr %2, align 8, !tbaa !4
  %3 = load ptr, ptr %2, align 8, !tbaa !4
  %4 = getelementptr inbounds nuw %struct.AVSContext, ptr %3, i32 0, i32 52
  %5 = getelementptr inbounds [10 x i8], ptr %4, i64 0, i64 8
  %6 = load i8, ptr %5, align 2, !tbaa !27
  %7 = load ptr, ptr %2, align 8, !tbaa !4
  %8 = getelementptr inbounds nuw %struct.AVSContext, ptr %7, i32 0, i32 52
  %9 = getelementptr inbounds [10 x i8], ptr %8, i64 0, i64 9
  store i8 %6, ptr %9, align 1, !tbaa !27
  %10 = load ptr, ptr %2, align 8, !tbaa !4
  %11 = getelementptr inbounds nuw %struct.AVSContext, ptr %10, i32 0, i32 53
  %12 = getelementptr inbounds [10 x i8], ptr %11, i64 0, i64 8
  %13 = load i8, ptr %12, align 4, !tbaa !27
  %14 = load ptr, ptr %2, align 8, !tbaa !4
  %15 = getelementptr inbounds nuw %struct.AVSContext, ptr %14, i32 0, i32 53
  %16 = getelementptr inbounds [10 x i8], ptr %15, i64 0, i64 9
  store i8 %13, ptr %16, align 1, !tbaa !27
  %17 = load ptr, ptr %2, align 8, !tbaa !4
  %18 = getelementptr inbounds nuw %struct.AVSContext, ptr %17, i32 0, i32 28
  %19 = load i32, ptr %18, align 4, !tbaa !41
  %20 = and i32 %19, 4
  %21 = icmp ne i32 %20, 0
  br i1 %21, label %22, label %65

22:                                               ; preds = %1
  %23 = load ptr, ptr %2, align 8, !tbaa !4
  %24 = getelementptr inbounds nuw %struct.AVSContext, ptr %23, i32 0, i32 49
  %25 = load ptr, ptr %24, align 8, !tbaa !29
  %26 = load ptr, ptr %2, align 8, !tbaa !4
  %27 = getelementptr inbounds nuw %struct.AVSContext, ptr %26, i32 0, i32 25
  %28 = load i32, ptr %27, align 8, !tbaa !26
  %29 = mul nsw i32 %28, 10
  %30 = add nsw i32 %29, 11
  %31 = sext i32 %30 to i64
  %32 = getelementptr inbounds i8, ptr %25, i64 %31
  %33 = load i8, ptr %32, align 1, !tbaa !27
  %34 = load ptr, ptr %2, align 8, !tbaa !4
  %35 = getelementptr inbounds nuw %struct.AVSContext, ptr %34, i32 0, i32 49
  %36 = load ptr, ptr %35, align 8, !tbaa !29
  %37 = load ptr, ptr %2, align 8, !tbaa !4
  %38 = getelementptr inbounds nuw %struct.AVSContext, ptr %37, i32 0, i32 25
  %39 = load i32, ptr %38, align 8, !tbaa !26
  %40 = mul nsw i32 %39, 10
  %41 = add nsw i32 %40, 9
  %42 = sext i32 %41 to i64
  %43 = getelementptr inbounds i8, ptr %36, i64 %42
  store i8 %33, ptr %43, align 1, !tbaa !27
  %44 = load ptr, ptr %2, align 8, !tbaa !4
  %45 = getelementptr inbounds nuw %struct.AVSContext, ptr %44, i32 0, i32 50
  %46 = load ptr, ptr %45, align 8, !tbaa !31
  %47 = load ptr, ptr %2, align 8, !tbaa !4
  %48 = getelementptr inbounds nuw %struct.AVSContext, ptr %47, i32 0, i32 25
  %49 = load i32, ptr %48, align 8, !tbaa !26
  %50 = mul nsw i32 %49, 10
  %51 = add nsw i32 %50, 11
  %52 = sext i32 %51 to i64
  %53 = getelementptr inbounds i8, ptr %46, i64 %52
  %54 = load i8, ptr %53, align 1, !tbaa !27
  %55 = load ptr, ptr %2, align 8, !tbaa !4
  %56 = getelementptr inbounds nuw %struct.AVSContext, ptr %55, i32 0, i32 50
  %57 = load ptr, ptr %56, align 8, !tbaa !31
  %58 = load ptr, ptr %2, align 8, !tbaa !4
  %59 = getelementptr inbounds nuw %struct.AVSContext, ptr %58, i32 0, i32 25
  %60 = load i32, ptr %59, align 8, !tbaa !26
  %61 = mul nsw i32 %60, 10
  %62 = add nsw i32 %61, 9
  %63 = sext i32 %62 to i64
  %64 = getelementptr inbounds i8, ptr %57, i64 %63
  store i8 %54, ptr %64, align 1, !tbaa !27
  br label %108

65:                                               ; preds = %1
  %66 = load ptr, ptr %2, align 8, !tbaa !4
  %67 = getelementptr inbounds nuw %struct.AVSContext, ptr %66, i32 0, i32 49
  %68 = load ptr, ptr %67, align 8, !tbaa !29
  %69 = load ptr, ptr %2, align 8, !tbaa !4
  %70 = getelementptr inbounds nuw %struct.AVSContext, ptr %69, i32 0, i32 25
  %71 = load i32, ptr %70, align 8, !tbaa !26
  %72 = mul nsw i32 %71, 10
  %73 = add nsw i32 %72, 8
  %74 = sext i32 %73 to i64
  %75 = getelementptr inbounds i8, ptr %68, i64 %74
  %76 = load i8, ptr %75, align 1, !tbaa !27
  %77 = load ptr, ptr %2, align 8, !tbaa !4
  %78 = getelementptr inbounds nuw %struct.AVSContext, ptr %77, i32 0, i32 49
  %79 = load ptr, ptr %78, align 8, !tbaa !29
  %80 = load ptr, ptr %2, align 8, !tbaa !4
  %81 = getelementptr inbounds nuw %struct.AVSContext, ptr %80, i32 0, i32 25
  %82 = load i32, ptr %81, align 8, !tbaa !26
  %83 = mul nsw i32 %82, 10
  %84 = add nsw i32 %83, 9
  %85 = sext i32 %84 to i64
  %86 = getelementptr inbounds i8, ptr %79, i64 %85
  store i8 %76, ptr %86, align 1, !tbaa !27
  %87 = load ptr, ptr %2, align 8, !tbaa !4
  %88 = getelementptr inbounds nuw %struct.AVSContext, ptr %87, i32 0, i32 50
  %89 = load ptr, ptr %88, align 8, !tbaa !31
  %90 = load ptr, ptr %2, align 8, !tbaa !4
  %91 = getelementptr inbounds nuw %struct.AVSContext, ptr %90, i32 0, i32 25
  %92 = load i32, ptr %91, align 8, !tbaa !26
  %93 = mul nsw i32 %92, 10
  %94 = add nsw i32 %93, 8
  %95 = sext i32 %94 to i64
  %96 = getelementptr inbounds i8, ptr %89, i64 %95
  %97 = load i8, ptr %96, align 1, !tbaa !27
  %98 = load ptr, ptr %2, align 8, !tbaa !4
  %99 = getelementptr inbounds nuw %struct.AVSContext, ptr %98, i32 0, i32 50
  %100 = load ptr, ptr %99, align 8, !tbaa !31
  %101 = load ptr, ptr %2, align 8, !tbaa !4
  %102 = getelementptr inbounds nuw %struct.AVSContext, ptr %101, i32 0, i32 25
  %103 = load i32, ptr %102, align 8, !tbaa !26
  %104 = mul nsw i32 %103, 10
  %105 = add nsw i32 %104, 9
  %106 = sext i32 %105 to i64
  %107 = getelementptr inbounds i8, ptr %100, i64 %106
  store i8 %97, ptr %107, align 1, !tbaa !27
  br label %108

108:                                              ; preds = %65, %22
  %109 = load ptr, ptr %2, align 8, !tbaa !4
  %110 = getelementptr inbounds nuw %struct.AVSContext, ptr %109, i32 0, i32 28
  %111 = load i32, ptr %110, align 4, !tbaa !41
  %112 = and i32 %111, 1
  %113 = icmp ne i32 %112, 0
  br i1 %113, label %114, label %151

114:                                              ; preds = %108
  %115 = load ptr, ptr %2, align 8, !tbaa !4
  %116 = getelementptr inbounds nuw %struct.AVSContext, ptr %115, i32 0, i32 28
  %117 = load i32, ptr %116, align 4, !tbaa !41
  %118 = and i32 %117, 2
  %119 = icmp ne i32 %118, 0
  br i1 %119, label %120, label %151

120:                                              ; preds = %114
  %121 = load ptr, ptr %2, align 8, !tbaa !4
  %122 = getelementptr inbounds nuw %struct.AVSContext, ptr %121, i32 0, i32 56
  %123 = load i8, ptr %122, align 1, !tbaa !30
  %124 = load ptr, ptr %2, align 8, !tbaa !4
  %125 = getelementptr inbounds nuw %struct.AVSContext, ptr %124, i32 0, i32 52
  %126 = getelementptr inbounds [10 x i8], ptr %125, i64 0, i64 0
  store i8 %123, ptr %126, align 2, !tbaa !27
  %127 = load ptr, ptr %2, align 8, !tbaa !4
  %128 = getelementptr inbounds nuw %struct.AVSContext, ptr %127, i32 0, i32 49
  %129 = load ptr, ptr %128, align 8, !tbaa !29
  %130 = load ptr, ptr %2, align 8, !tbaa !4
  %131 = getelementptr inbounds nuw %struct.AVSContext, ptr %130, i32 0, i32 25
  %132 = load i32, ptr %131, align 8, !tbaa !26
  %133 = mul nsw i32 %132, 10
  %134 = sext i32 %133 to i64
  %135 = getelementptr inbounds i8, ptr %129, i64 %134
  store i8 %123, ptr %135, align 1, !tbaa !27
  %136 = load ptr, ptr %2, align 8, !tbaa !4
  %137 = getelementptr inbounds nuw %struct.AVSContext, ptr %136, i32 0, i32 57
  %138 = load i8, ptr %137, align 2, !tbaa !32
  %139 = load ptr, ptr %2, align 8, !tbaa !4
  %140 = getelementptr inbounds nuw %struct.AVSContext, ptr %139, i32 0, i32 53
  %141 = getelementptr inbounds [10 x i8], ptr %140, i64 0, i64 0
  store i8 %138, ptr %141, align 4, !tbaa !27
  %142 = load ptr, ptr %2, align 8, !tbaa !4
  %143 = getelementptr inbounds nuw %struct.AVSContext, ptr %142, i32 0, i32 50
  %144 = load ptr, ptr %143, align 8, !tbaa !31
  %145 = load ptr, ptr %2, align 8, !tbaa !4
  %146 = getelementptr inbounds nuw %struct.AVSContext, ptr %145, i32 0, i32 25
  %147 = load i32, ptr %146, align 8, !tbaa !26
  %148 = mul nsw i32 %147, 10
  %149 = sext i32 %148 to i64
  %150 = getelementptr inbounds i8, ptr %144, i64 %149
  store i8 %138, ptr %150, align 1, !tbaa !27
  br label %206

151:                                              ; preds = %114, %108
  %152 = load ptr, ptr %2, align 8, !tbaa !4
  %153 = getelementptr inbounds nuw %struct.AVSContext, ptr %152, i32 0, i32 52
  %154 = getelementptr inbounds [10 x i8], ptr %153, i64 0, i64 1
  %155 = load i8, ptr %154, align 1, !tbaa !27
  %156 = load ptr, ptr %2, align 8, !tbaa !4
  %157 = getelementptr inbounds nuw %struct.AVSContext, ptr %156, i32 0, i32 52
  %158 = getelementptr inbounds [10 x i8], ptr %157, i64 0, i64 0
  store i8 %155, ptr %158, align 2, !tbaa !27
  %159 = load ptr, ptr %2, align 8, !tbaa !4
  %160 = getelementptr inbounds nuw %struct.AVSContext, ptr %159, i32 0, i32 53
  %161 = getelementptr inbounds [10 x i8], ptr %160, i64 0, i64 1
  %162 = load i8, ptr %161, align 1, !tbaa !27
  %163 = load ptr, ptr %2, align 8, !tbaa !4
  %164 = getelementptr inbounds nuw %struct.AVSContext, ptr %163, i32 0, i32 53
  %165 = getelementptr inbounds [10 x i8], ptr %164, i64 0, i64 0
  store i8 %162, ptr %165, align 4, !tbaa !27
  %166 = load ptr, ptr %2, align 8, !tbaa !4
  %167 = getelementptr inbounds nuw %struct.AVSContext, ptr %166, i32 0, i32 49
  %168 = load ptr, ptr %167, align 8, !tbaa !29
  %169 = load ptr, ptr %2, align 8, !tbaa !4
  %170 = getelementptr inbounds nuw %struct.AVSContext, ptr %169, i32 0, i32 25
  %171 = load i32, ptr %170, align 8, !tbaa !26
  %172 = mul nsw i32 %171, 10
  %173 = add nsw i32 %172, 1
  %174 = sext i32 %173 to i64
  %175 = getelementptr inbounds i8, ptr %168, i64 %174
  %176 = load i8, ptr %175, align 1, !tbaa !27
  %177 = load ptr, ptr %2, align 8, !tbaa !4
  %178 = getelementptr inbounds nuw %struct.AVSContext, ptr %177, i32 0, i32 49
  %179 = load ptr, ptr %178, align 8, !tbaa !29
  %180 = load ptr, ptr %2, align 8, !tbaa !4
  %181 = getelementptr inbounds nuw %struct.AVSContext, ptr %180, i32 0, i32 25
  %182 = load i32, ptr %181, align 8, !tbaa !26
  %183 = mul nsw i32 %182, 10
  %184 = sext i32 %183 to i64
  %185 = getelementptr inbounds i8, ptr %179, i64 %184
  store i8 %176, ptr %185, align 1, !tbaa !27
  %186 = load ptr, ptr %2, align 8, !tbaa !4
  %187 = getelementptr inbounds nuw %struct.AVSContext, ptr %186, i32 0, i32 50
  %188 = load ptr, ptr %187, align 8, !tbaa !31
  %189 = load ptr, ptr %2, align 8, !tbaa !4
  %190 = getelementptr inbounds nuw %struct.AVSContext, ptr %189, i32 0, i32 25
  %191 = load i32, ptr %190, align 8, !tbaa !26
  %192 = mul nsw i32 %191, 10
  %193 = add nsw i32 %192, 1
  %194 = sext i32 %193 to i64
  %195 = getelementptr inbounds i8, ptr %188, i64 %194
  %196 = load i8, ptr %195, align 1, !tbaa !27
  %197 = load ptr, ptr %2, align 8, !tbaa !4
  %198 = getelementptr inbounds nuw %struct.AVSContext, ptr %197, i32 0, i32 50
  %199 = load ptr, ptr %198, align 8, !tbaa !31
  %200 = load ptr, ptr %2, align 8, !tbaa !4
  %201 = getelementptr inbounds nuw %struct.AVSContext, ptr %200, i32 0, i32 25
  %202 = load i32, ptr %201, align 8, !tbaa !26
  %203 = mul nsw i32 %202, 10
  %204 = sext i32 %203 to i64
  %205 = getelementptr inbounds i8, ptr %199, i64 %204
  store i8 %196, ptr %205, align 1, !tbaa !27
  br label %206

206:                                              ; preds = %151, %120
  ret void
}