; Function Attrs: mustprogress nofree norecurse nosync nounwind willreturn memory(readwrite, inaccessiblemem: none) uwtable
define void @ff_cavs_load_intra_pred_chroma(ptr noundef captures(none) initializes((1322, 1323), (1331, 1333), (1341, 1342)) %0) local_unnamed_addr #5 {
  %2 = getelementptr inbounds nuw i8, ptr %0, i64 1322
  %3 = getelementptr inbounds nuw i8, ptr %0, i64 1330
  %4 = load i8, ptr %3, align 2, !tbaa !24
  %5 = getelementptr inbounds nuw i8, ptr %0, i64 1331
  store i8 %4, ptr %5, align 1, !tbaa !24
  %6 = getelementptr inbounds nuw i8, ptr %0, i64 1332
  %7 = getelementptr inbounds nuw i8, ptr %0, i64 1340
  %8 = load i8, ptr %7, align 4, !tbaa !24
  %9 = getelementptr inbounds nuw i8, ptr %0, i64 1341
  store i8 %8, ptr %9, align 1, !tbaa !24
  %10 = getelementptr inbounds nuw i8, ptr %0, i64 844
  %11 = load i32, ptr %10, align 4, !tbaa !43
  %12 = and i32 %11, 4
  %.not = icmp eq i32 %12, 0
  %13 = getelementptr inbounds nuw i8, ptr %0, i64 1280
  %14 = load ptr, ptr %13, align 8, !tbaa !26
  %15 = getelementptr inbounds nuw i8, ptr %0, i64 832
  %16 = load i32, ptr %15, align 8, !tbaa !23
  %17 = mul nsw i32 %16, 10
  %18 = sext i32 %17 to i64
  %19 = getelementptr i8, ptr %14, i64 %18
  %20 = getelementptr i8, ptr %19, i64 9
  %21 = getelementptr inbounds nuw i8, ptr %0, i64 1288
  %. = select i1 %.not, i64 8, i64 11
  %22 = getelementptr i8, ptr %19, i64 %.
  %23 = load i8, ptr %22, align 1, !tbaa !24
  store i8 %23, ptr %20, align 1, !tbaa !24
  %24 = load ptr, ptr %21, align 8, !tbaa !28
  %25 = load i32, ptr %15, align 8, !tbaa !23
  %26 = mul nsw i32 %25, 10
  %27 = sext i32 %26 to i64
  %28 = getelementptr i8, ptr %24, i64 %27
  %29 = getelementptr i8, ptr %28, i64 %.
  %30 = load i8, ptr %29, align 1, !tbaa !24
  %31 = getelementptr i8, ptr %28, i64 9
  store i8 %30, ptr %31, align 1, !tbaa !24
  %32 = load i32, ptr %10, align 4, !tbaa !43
  %33 = and i32 %32, 3
  %or.cond.not = icmp eq i32 %33, 3
  br i1 %or.cond.not, label %34, label %52

34:                                               ; preds = %1
  %35 = getelementptr inbounds nuw i8, ptr %0, i64 1369
  %36 = load i8, ptr %35, align 1, !tbaa !27
  store i8 %36, ptr %2, align 2, !tbaa !24
  %37 = getelementptr inbounds nuw i8, ptr %0, i64 1280
  %38 = load ptr, ptr %37, align 8, !tbaa !26
  %39 = getelementptr inbounds nuw i8, ptr %0, i64 832
  %40 = load i32, ptr %39, align 8, !tbaa !23
  %41 = mul nsw i32 %40, 10
  %42 = sext i32 %41 to i64
  %43 = getelementptr inbounds i8, ptr %38, i64 %42
  store i8 %36, ptr %43, align 1, !tbaa !24
  %44 = getelementptr inbounds nuw i8, ptr %0, i64 1370
  %45 = load i8, ptr %44, align 2, !tbaa !29
  store i8 %45, ptr %6, align 4, !tbaa !24
  %46 = getelementptr inbounds nuw i8, ptr %0, i64 1288
  %47 = load ptr, ptr %46, align 8, !tbaa !28
  %48 = load i32, ptr %39, align 8, !tbaa !23
  %49 = mul nsw i32 %48, 10
  %50 = sext i32 %49 to i64
  %51 = getelementptr inbounds i8, ptr %47, i64 %50
  store i8 %45, ptr %51, align 1, !tbaa !24
  br label %74

52:                                               ; preds = %1
  %53 = getelementptr inbounds nuw i8, ptr %0, i64 1323
  %54 = load i8, ptr %53, align 1, !tbaa !24
  store i8 %54, ptr %2, align 2, !tbaa !24
  %55 = getelementptr inbounds nuw i8, ptr %0, i64 1333
  %56 = load i8, ptr %55, align 1, !tbaa !24
  store i8 %56, ptr %6, align 4, !tbaa !24
  %57 = getelementptr inbounds nuw i8, ptr %0, i64 1280
  %58 = load ptr, ptr %57, align 8, !tbaa !26
  %59 = getelementptr inbounds nuw i8, ptr %0, i64 832
  %60 = load i32, ptr %59, align 8, !tbaa !23
  %61 = mul nsw i32 %60, 10
  %62 = sext i32 %61 to i64
  %63 = getelementptr i8, ptr %58, i64 %62
  %64 = getelementptr i8, ptr %63, i64 1
  %65 = load i8, ptr %64, align 1, !tbaa !24
  store i8 %65, ptr %63, align 1, !tbaa !24
  %66 = getelementptr inbounds nuw i8, ptr %0, i64 1288
  %67 = load ptr, ptr %66, align 8, !tbaa !28
  %68 = load i32, ptr %59, align 8, !tbaa !23
  %69 = mul nsw i32 %68, 10
  %70 = sext i32 %69 to i64
  %71 = getelementptr i8, ptr %67, i64 %70
  %72 = getelementptr i8, ptr %71, i64 1
  %73 = load i8, ptr %72, align 1, !tbaa !24
  store i8 %73, ptr %71, align 1, !tbaa !24
  br label %74

74:                                               ; preds = %52, %34
  ret void
}